; Function Attrs: mustprogress nounwind uwtable
define dso_local void @_ZN4llvm9DWARFUnit19extractDIEsIfNeededEb(ptr noundef nonnull align 8 dereferenceable(448) %0, i1 noundef zeroext %1) local_unnamed_addr #0 align 2 {
  %3 = alloca %"class.llvm::Error", align 8
  %4 = alloca %"class.llvm::Error", align 8
  call void @_ZN4llvm9DWARFUnit22tryExtractDIEsIfNeededEb(ptr dead_on_unwind nonnull writable sret(%"class.llvm::Error") align 8 %4, ptr noundef nonnull align 8 dereferenceable(448) %0, i1 noundef zeroext %1)
  %5 = load ptr, ptr %4, align 8
  %.not = icmp eq ptr %5, null
  br i1 %.not, label %_ZN4llvm5ErrorD2Ev.exit1, label %6

6:                                                ; preds = %2
  %7 = getelementptr inbounds nuw i8, ptr %0, i64 8
  %8 = load ptr, ptr %7, align 8
  store ptr null, ptr %4, align 8
  call void @llvm.lifetime.start.p0(i64 8, ptr nonnull %3)
  store ptr %5, ptr %3, align 8
  %9 = getelementptr inbounds i8, ptr %8, i64 48
  %10 = load ptr, ptr %9, align 8
  %.not.i.i.i = icmp eq ptr %10, null
  br i1 %.not.i.i.i, label %11, label %_ZNKSt8functionIFvN4llvm5ErrorEEEclES1_.exit.i

11:                                               ; preds = %6
  call void @_ZSt25__throw_bad_function_callv() #24
  unreachable

_ZNKSt8functionIFvN4llvm5ErrorEEEclES1_.exit.i:   ; preds = %6
  %12 = getelementptr inbounds nuw i8, ptr %8, i64 32
  %13 = getelementptr inbounds i8, ptr %8, i64 56
  %14 = load ptr, ptr %13, align 8
  call void %14(ptr noundef nonnull align 8 dereferenceable(16) %12, ptr noundef nonnull align 8 dereferenceable(8) %3) #22
  %15 = load ptr, ptr %3, align 8
  %16 = icmp eq ptr %15, null
  br i1 %16, label %21, label %17

17:                                               ; preds = %_ZNKSt8functionIFvN4llvm5ErrorEEEclES1_.exit.i
  %18 = load ptr, ptr %15, align 8
  %19 = getelementptr inbounds i8, ptr %18, i64 8
  %20 = load ptr, ptr %19, align 8
  call void %20(ptr noundef nonnull align 8 dereferenceable(8) %15) #22
  br label %21

21:                                               ; preds = %17, %_ZNKSt8functionIFvN4llvm5ErrorEEEclES1_.exit.i
  call void @llvm.lifetime.end.p0(i64 8, ptr nonnull %3)
  %.pr = load ptr, ptr %4, align 8
  %22 = icmp eq ptr %.pr, null
  br i1 %22, label %_ZN4llvm5ErrorD2Ev.exit1, label %23

23:                                               ; preds = %21
  %24 = load ptr, ptr %.pr, align 8
  %25 = getelementptr inbounds i8, ptr %24, i64 8
  %26 = load ptr, ptr %25, align 8
  call void %26(ptr noundef nonnull align 8 dereferenceable(8) %.pr) #22
  br label %_ZN4llvm5ErrorD2Ev.exit1

_ZN4llvm5ErrorD2Ev.exit1:                         ; preds = %2, %21, %23
  ret void
}